target datalayout = "e-m:e-p270:32:32-p271:32:32-p272:64:64-i64:64-i128:128-f80:128-n8:16:32:64-S128"
target triple = "x86_64-pc-linux-gnu"

%"class.std::__cxx11::basic_string" = type { %"struct.std::__cxx11::basic_string<char>::_Alloc_hider", i64, %union.anon }
%"struct.std::__cxx11::basic_string<char>::_Alloc_hider" = type { ptr }
%union.anon = type { i64, [8 x i8] }
%class.anon = type { ptr }
%"class.gmx::StatePropagatorData::Element" = type { %"class.gmx::ISimulatorElement", %"class.gmx::ITrajectoryWriterClient", %"class.gmx::ITrajectorySignallerClient", %"class.gmx::ICheckpointHelperClient", %"class.gmx::ILastStepSignallerClient", ptr, i32, i32, i32, i32, %"class.std::unique_ptr.206", i8, i64, ptr, %"class.gmx::WriteCheckpointDataHolder", i8, i64, i8, i8, i32, i64, i8, %"class.std::__cxx11::basic_string", ptr, ptr, ptr }
%"class.gmx::ISimulatorElement" = type { ptr }
%"class.gmx::ITrajectoryWriterClient" = type { ptr }
%"class.gmx::ITrajectorySignallerClient" = type { ptr }
%"class.gmx::ICheckpointHelperClient" = type { ptr }
%"class.gmx::ILastStepSignallerClient" = type { ptr }
%"class.std::unique_ptr.206" = type { %"struct.std::__uniq_ptr_data.207" }
%"struct.std::__uniq_ptr_data.207" = type { %"class.std::__uniq_ptr_impl.208" }
%"class.std::__uniq_ptr_impl.208" = type { %"class.std::tuple.209" }
%"class.std::tuple.209" = type { %"struct.std::_Tuple_impl.210" }
%"struct.std::_Tuple_impl.210" = type { %"struct.std::_Head_base.213" }
%"struct.std::_Head_base.213" = type { ptr }
%"class.gmx::WriteCheckpointDataHolder" = type <{ %"class.gmx::KeyValueTreeBuilder", i8, [7 x i8] }>
%"class.gmx::KeyValueTreeBuilder" = type { %"class.gmx::KeyValueTreeObject" }
%"class.gmx::KeyValueTreeObject" = type { %"class.std::map", %"class.std::vector.218" }
%"class.std::map" = type { %"class.std::_Rb_tree" }
%"class.std::_Rb_tree" = type { %"struct.std::_Rb_tree<std::__cxx11::basic_string<char>, std::pair<const std::__cxx11::basic_string<char>, gmx::KeyValueTreeValue>, std::_Select1st<std::pair<const std::__cxx11::basic_string<char>, gmx::KeyValueTreeValue>>, std::less<std::__cxx11::basic_string<char>>>::_Rb_tree_impl" }
%"struct.std::_Rb_tree<std::__cxx11::basic_string<char>, std::pair<const std::__cxx11::basic_string<char>, gmx::KeyValueTreeValue>, std::_Select1st<std::pair<const std::__cxx11::basic_string<char>, gmx::KeyValueTreeValue>>, std::less<std::__cxx11::basic_string<char>>>::_Rb_tree_impl" = type { %"struct.std::_Rb_tree_key_compare", %"struct.std::_Rb_tree_header" }
%"struct.std::_Rb_tree_key_compare" = type { %"struct.std::less" }
%"struct.std::less" = type { i8 }
%"struct.std::_Rb_tree_header" = type { %"struct.std::_Rb_tree_node_base", i64 }
%"struct.std::_Rb_tree_node_base" = type { i32, ptr, ptr, ptr }
%"class.std::vector.218" = type { %"struct.std::_Vector_base.219" }
%"struct.std::_Vector_base.219" = type { %"struct.std::_Vector_base<gmx::KeyValueTreeProperty, std::allocator<gmx::KeyValueTreeProperty>>::_Vector_impl" }
%"struct.std::_Vector_base<gmx::KeyValueTreeProperty, std::allocator<gmx::KeyValueTreeProperty>>::_Vector_impl" = type { %"struct.std::_Vector_base<gmx::KeyValueTreeProperty, std::allocator<gmx::KeyValueTreeProperty>>::_Vector_impl_data" }
%"struct.std::_Vector_base<gmx::KeyValueTreeProperty, std::allocator<gmx::KeyValueTreeProperty>>::_Vector_impl_data" = type { ptr, ptr, ptr }
%"class.gmx::StatePropagatorData" = type { i32, i32, %"class.gmx::PaddedVector", %"class.gmx::PaddedVector", %"class.gmx::PaddedVector", %"class.gmx::ForceBuffers", [3 x [3 x float]], [3 x [3 x float]], i32, i32, %"class.std::vector.39", %"class.gmx::PaddedVector", %"class.gmx::PaddedVector", %"class.gmx::PaddedVector", %"class.gmx::PaddedVector", %"class.std::unique_ptr", %"class.std::unique_ptr.43", i8, %"class.gmx::PaddedVector", i8, i64, ptr, ptr }
%"class.gmx::ForceBuffers" = type <{ %"class.gmx::PaddedVector", %"class.gmx::PaddedVector", %"class.gmx::ForceBuffersView", i8, [7 x i8] }>
%"class.gmx::ForceBuffersView" = type <{ %"class.gmx::ArrayRefWithPadding", %"class.gmx::ArrayRefWithPadding", i8, [7 x i8] }>
%"class.gmx::ArrayRefWithPadding" = type { ptr, ptr, ptr }
%"class.std::vector.39" = type { %"struct.std::_Vector_base.40" }
%"struct.std::_Vector_base.40" = type { %"struct.std::_Vector_base<int, std::allocator<int>>::_Vector_impl" }
%"struct.std::_Vector_base<int, std::allocator<int>>::_Vector_impl" = type { %"struct.std::_Vector_base<int, std::allocator<int>>::_Vector_impl_data" }
%"struct.std::_Vector_base<int, std::allocator<int>>::_Vector_impl_data" = type { ptr, ptr, ptr }
%"class.std::unique_ptr" = type { %"struct.std::__uniq_ptr_data" }
%"struct.std::__uniq_ptr_data" = type { %"class.std::__uniq_ptr_impl" }
%"class.std::__uniq_ptr_impl" = type { %"class.std::tuple" }
%"class.std::tuple" = type { %"struct.std::_Tuple_impl" }
%"struct.std::_Tuple_impl" = type { %"struct.std::_Head_base.42" }
%"struct.std::_Head_base.42" = type { ptr }
%"class.std::unique_ptr.43" = type { %"struct.std::__uniq_ptr_data.44" }
%"struct.std::__uniq_ptr_data.44" = type { %"class.std::__uniq_ptr_impl.45" }
%"class.std::__uniq_ptr_impl.45" = type { %"class.std::tuple.46" }
%"class.std::tuple.46" = type { %"struct.std::_Tuple_impl.47" }
%"struct.std::_Tuple_impl.47" = type { %"struct.std::_Head_base.50" }
%"struct.std::_Head_base.50" = type { ptr }
%"class.gmx::PaddedVector" = type { %"class.std::vector", %"class.__gnu_cxx::__normal_iterator" }
%"class.std::vector" = type { %"struct.std::_Vector_base" }
%"struct.std::_Vector_base" = type { %"struct.std::_Vector_base<gmx::BasicVector<float>, gmx::Allocator<gmx::BasicVector<float>, gmx::HostAllocationPolicy>>::_Vector_impl" }
%"struct.std::_Vector_base<gmx::BasicVector<float>, gmx::Allocator<gmx::BasicVector<float>, gmx::HostAllocationPolicy>>::_Vector_impl" = type { %"class.gmx::Allocator", %"struct.std::_Vector_base<gmx::BasicVector<float>, gmx::Allocator<gmx::BasicVector<float>, gmx::HostAllocationPolicy>>::_Vector_impl_data" }
%"class.gmx::Allocator" = type { %"class.gmx::HostAllocationPolicy" }
%"class.gmx::HostAllocationPolicy" = type { i32 }
%"struct.std::_Vector_base<gmx::BasicVector<float>, gmx::Allocator<gmx::BasicVector<float>, gmx::HostAllocationPolicy>>::_Vector_impl_data" = type { ptr, ptr, ptr }
%"class.__gnu_cxx::__normal_iterator" = type { ptr }
%"class.gmx::BasicVector" = type { [3 x float] }
%"class.__gnu_cxx::__normal_iterator.225" = type { ptr }

; Function Attrs: mustprogress nounwind uwtable
define linkonce_odr void @_ZN9__gnu_cxx17__normal_iteratorIPKN3gmx11BasicVectorIfEESt6vectorIS3_NS1_9AllocatorIS3_NS1_20HostAllocationPolicyEEEEEC2ERKS5_(ptr noundef nonnull align 8 dereferenceable(8) %0, ptr noundef nonnull align 8 dereferenceable(8) %1) unnamed_addr #1 comdat align 2 {
  %3 = alloca ptr, align 8
  %4 = alloca ptr, align 8
  store ptr %0, ptr %3, align 8
  store ptr %1, ptr %4, align 8
  %5 = load ptr, ptr %3, align 8
  %6 = getelementptr inbounds %"class.__gnu_cxx::__normal_iterator.225", ptr %5, i32 0, i32 0
  %7 = load ptr, ptr %4, align 8
  %8 = load ptr, ptr %7, align 8
  store ptr %8, ptr %6, align 8
  ret void
}

; Function Attrs: mustprogress nounwind uwtable
define linkonce_odr noundef nonnull align 8 dereferenceable(8) ptr @_ZNK9__gnu_cxx17__normal_iteratorIPN3gmx11BasicVectorIfEESt6vectorIS3_NS1_9AllocatorIS3_NS1_20HostAllocationPolicyEEEEE4baseEv(ptr noundef nonnull align 8 dereferenceable(8) %0) #1 comdat align 2 {
  %2 = alloca ptr, align 8
  store ptr %0, ptr %2, align 8
  %3 = load ptr, ptr %2, align 8
  %4 = getelementptr inbounds %"class.__gnu_cxx::__normal_iterator", ptr %3, i32 0, i32 0
  ret ptr %4
}

; Function Attrs: mustprogress nounwind uwtable
define linkonce_odr noundef nonnull align 8 dereferenceable(8) ptr @_ZNK9__gnu_cxx17__normal_iteratorIPKN3gmx11BasicVectorIfEESt6vectorIS3_NS1_9AllocatorIS3_NS1_20HostAllocationPolicyEEEEE4baseEv(ptr noundef nonnull align 8 dereferenceable(8) %0) #1 comdat align 2 {
  %2 = alloca ptr, align 8
  store ptr %0, ptr %2, align 8
  %3 = load ptr, ptr %2, align 8
  %4 = getelementptr inbounds %"class.__gnu_cxx::__normal_iterator.225", ptr %3, i32 0, i32 0
  ret ptr %4
}

; Function Attrs: mustprogress nounwind uwtable
define linkonce_odr ptr @_ZNKSt6vectorIN3gmx11BasicVectorIfEENS0_9AllocatorIS2_NS0_20HostAllocationPolicyEEEE5beginEv(ptr noundef nonnull align 8 dereferenceable(32) %0) #1 comdat align 2 {
  %2 = alloca %"class.__gnu_cxx::__normal_iterator.225", align 8
  %3 = alloca ptr, align 8
  store ptr %0, ptr %3, align 8
  %4 = load ptr, ptr %3, align 8
  %5 = getelementptr inbounds %"struct.std::_Vector_base", ptr %4, i32 0, i32 0
  %6 = getelementptr inbounds i8, ptr %5, i64 8
  %7 = getelementptr inbounds %"struct.std::_Vector_base<gmx::BasicVector<float>, gmx::Allocator<gmx::BasicVector<float>, gmx::HostAllocationPolicy>>::_Vector_impl_data", ptr %6, i32 0, i32 0
  call void @_ZN9__gnu_cxx17__normal_iteratorIPKN3gmx11BasicVectorIfEESt6vectorIS3_NS1_9AllocatorIS3_NS1_20HostAllocationPolicyEEEEEC2ERKS5_(ptr noundef nonnull align 8 dereferenceable(8) %2, ptr noundef nonnull align 8 dereferenceable(8) %7) #14
  %8 = getelementptr inbounds %"class.__gnu_cxx::__normal_iterator.225", ptr %2, i32 0, i32 0
  %9 = load ptr, ptr %8, align 8
  ret ptr %9
}

; Function Attrs: mustprogress nounwind uwtable
define linkonce_odr void @_ZN9__gnu_cxx17__normal_iteratorIPKN3gmx11BasicVectorIfEESt6vectorIS3_NS1_9AllocatorIS3_NS1_20HostAllocationPolicyEEEEEC2IPS3_vEERKNS0_IT_SA_EE(ptr noundef nonnull align 8 dereferenceable(8) %0, ptr noundef nonnull align 8 dereferenceable(8) %1) unnamed_addr #1 comdat align 2 {
  %3 = alloca ptr, align 8
  %4 = alloca ptr, align 8
  store ptr %0, ptr %3, align 8
  store ptr %1, ptr %4, align 8
  %5 = load ptr, ptr %3, align 8
  %6 = getelementptr inbounds %"class.__gnu_cxx::__normal_iterator.225", ptr %5, i32 0, i32 0
  %7 = load ptr, ptr %4, align 8
  %8 = call noundef nonnull align 8 dereferenceable(8) ptr @_ZNK9__gnu_cxx17__normal_iteratorIPN3gmx11BasicVectorIfEESt6vectorIS3_NS1_9AllocatorIS3_NS1_20HostAllocationPolicyEEEEE4baseEv(ptr noundef nonnull align 8 dereferenceable(8) %7) #14
  %9 = load ptr, ptr %8, align 8
  store ptr %9, ptr %6, align 8
  ret void
}

; Function Attrs: mustprogress nounwind uwtable
define linkonce_odr void @_ZN9__gnu_cxx17__normal_iteratorIPN3gmx11BasicVectorIfEESt6vectorIS3_NS1_9AllocatorIS3_NS1_20HostAllocationPolicyEEEEEC2ERKS4_(ptr noundef nonnull align 8 dereferenceable(8) %0, ptr noundef nonnull align 8 dereferenceable(8) %1) unnamed_addr #1 comdat align 2 {
  %3 = alloca ptr, align 8
  %4 = alloca ptr, align 8
  store ptr %0, ptr %3, align 8
  store ptr %1, ptr %4, align 8
  %5 = load ptr, ptr %3, align 8
  %6 = getelementptr inbounds %"class.__gnu_cxx::__normal_iterator", ptr %5, i32 0, i32 0
  %7 = load ptr, ptr %4, align 8
  %8 = load ptr, ptr %7, align 8
  store ptr %8, ptr %6, align 8
  ret void
}

; Function Attrs: mustprogress nounwind uwtable
define linkonce_odr noundef i64 @_ZN9__gnu_cxxmiIPKN3gmx11BasicVectorIfEESt6vectorIS3_NS1_9AllocatorIS3_NS1_20HostAllocationPolicyEEEEEENS_17__normal_iteratorIT_T0_E15difference_typeERKSE_SH_(ptr noundef nonnull align 8 dereferenceable(8) %0, ptr noundef nonnull align 8 dereferenceable(8) %1) #1 comdat {
  %3 = alloca ptr, align 8
  %4 = alloca ptr, align 8
  store ptr %0, ptr %3, align 8
  store ptr %1, ptr %4, align 8
  %5 = load ptr, ptr %3, align 8
  %6 = call noundef nonnull align 8 dereferenceable(8) ptr @_ZNK9__gnu_cxx17__normal_iteratorIPKN3gmx11BasicVectorIfEESt6vectorIS3_NS1_9AllocatorIS3_NS1_20HostAllocationPolicyEEEEE4baseEv(ptr noundef nonnull align 8 dereferenceable(8) %5) #14
  %7 = load ptr, ptr %6, align 8
  %8 = load ptr, ptr %4, align 8
  %9 = call noundef nonnull align 8 dereferenceable(8) ptr @_ZNK9__gnu_cxx17__normal_iteratorIPKN3gmx11BasicVectorIfEESt6vectorIS3_NS1_9AllocatorIS3_NS1_20HostAllocationPolicyEEEEE4baseEv(ptr noundef nonnull align 8 dereferenceable(8) %8) #14
  %10 = load ptr, ptr %9, align 8
  %11 = ptrtoint ptr %7 to i64
  %12 = ptrtoint ptr %10 to i64
  %13 = sub i64 %11, %12
  %14 = sdiv exact i64 %13, 12
  ret i64 %14
}

; Function Attrs: mustprogress nounwind uwtable
define linkonce_odr ptr @_ZNK3gmx12PaddedVectorINS_11BasicVectorIfEENS_9AllocatorIS2_NS_20HostAllocationPolicyEEEE5beginEv(ptr noundef nonnull align 8 dereferenceable(40) %0) #1 comdat align 2 {
  %2 = alloca %"class.__gnu_cxx::__normal_iterator.225", align 8
  %3 = alloca ptr, align 8
  store ptr %0, ptr %3, align 8
  %4 = load ptr, ptr %3, align 8
  %5 = getelementptr inbounds %"class.gmx::PaddedVector", ptr %4, i32 0, i32 0
  %6 = call ptr @_ZNKSt6vectorIN3gmx11BasicVectorIfEENS0_9AllocatorIS2_NS0_20HostAllocationPolicyEEEE5beginEv(ptr noundef nonnull align 8 dereferenceable(32) %5) #14
  %7 = getelementptr inbounds %"class.__gnu_cxx::__normal_iterator.225", ptr %2, i32 0, i32 0
  store ptr %6, ptr %7, align 8
  %8 = getelementptr inbounds %"class.__gnu_cxx::__normal_iterator.225", ptr %2, i32 0, i32 0
  %9 = load ptr, ptr %8, align 8
  ret ptr %9
}

; Function Attrs: mustprogress nounwind uwtable
define linkonce_odr ptr @_ZNK3gmx12PaddedVectorINS_11BasicVectorIfEENS_9AllocatorIS2_NS_20HostAllocationPolicyEEEE3endEv(ptr noundef nonnull align 8 dereferenceable(40) %0) #1 comdat align 2 {
  %2 = alloca %"class.__gnu_cxx::__normal_iterator.225", align 8
  %3 = alloca ptr, align 8
  store ptr %0, ptr %3, align 8
  %4 = load ptr, ptr %3, align 8
  %5 = getelementptr inbounds %"class.gmx::PaddedVector", ptr %4, i32 0, i32 1
  call void @_ZN9__gnu_cxx17__normal_iteratorIPKN3gmx11BasicVectorIfEESt6vectorIS3_NS1_9AllocatorIS3_NS1_20HostAllocationPolicyEEEEEC2IPS3_vEERKNS0_IT_SA_EE(ptr noundef nonnull align 8 dereferenceable(8) %2, ptr noundef nonnull align 8 dereferenceable(8) %5) #14
  %6 = getelementptr inbounds %"class.__gnu_cxx::__normal_iterator.225", ptr %2, i32 0, i32 0
  %7 = load ptr, ptr %6, align 8
  ret ptr %7
}

; Function Attrs: mustprogress nounwind uwtable
define linkonce_odr ptr @_ZNSt6vectorIN3gmx11BasicVectorIfEENS0_9AllocatorIS2_NS0_20HostAllocationPolicyEEEE5beginEv(ptr noundef nonnull align 8 dereferenceable(32) %0) #1 comdat align 2 {
  %2 = alloca %"class.__gnu_cxx::__normal_iterator", align 8
  %3 = alloca ptr, align 8
  store ptr %0, ptr %3, align 8
  %4 = load ptr, ptr %3, align 8
  %5 = getelementptr inbounds %"struct.std::_Vector_base", ptr %4, i32 0, i32 0
  %6 = getelementptr inbounds i8, ptr %5, i64 8
  %7 = getelementptr inbounds %"struct.std::_Vector_base<gmx::BasicVector<float>, gmx::Allocator<gmx::BasicVector<float>, gmx::HostAllocationPolicy>>::_Vector_impl_data", ptr %6, i32 0, i32 0
  call void @_ZN9__gnu_cxx17__normal_iteratorIPN3gmx11BasicVectorIfEESt6vectorIS3_NS1_9AllocatorIS3_NS1_20HostAllocationPolicyEEEEEC2ERKS4_(ptr noundef nonnull align 8 dereferenceable(8) %2, ptr noundef nonnull align 8 dereferenceable(8) %7) #14
  %8 = getelementptr inbounds %"class.__gnu_cxx::__normal_iterator", ptr %2, i32 0, i32 0
  %9 = load ptr, ptr %8, align 8
  ret ptr %9
}

; Function Attrs: mustprogress nounwind uwtable
define linkonce_odr ptr @_ZNK9__gnu_cxx17__normal_iteratorIPN3gmx11BasicVectorIfEESt6vectorIS3_NS1_9AllocatorIS3_NS1_20HostAllocationPolicyEEEEEplEl(ptr noundef nonnull align 8 dereferenceable(8) %0, i64 noundef %1) #1 comdat align 2 {
  %3 = alloca %"class.__gnu_cxx::__normal_iterator", align 8
  %4 = alloca ptr, align 8
  %5 = alloca i64, align 8
  %6 = alloca ptr, align 8
  store ptr %0, ptr %4, align 8
  store i64 %1, ptr %5, align 8
  %7 = load ptr, ptr %4, align 8
  %8 = getelementptr inbounds %"class.__gnu_cxx::__normal_iterator", ptr %7, i32 0, i32 0
  %9 = load ptr, ptr %8, align 8
  %10 = load i64, ptr %5, align 8
  %11 = getelementptr inbounds %"class.gmx::BasicVector", ptr %9, i64 %10
  store ptr %11, ptr %6, align 8
  call void @_ZN9__gnu_cxx17__normal_iteratorIPN3gmx11BasicVectorIfEESt6vectorIS3_NS1_9AllocatorIS3_NS1_20HostAllocationPolicyEEEEEC2ERKS4_(ptr noundef nonnull align 8 dereferenceable(8) %3, ptr noundef nonnull align 8 dereferenceable(8) %6) #14
  %12 = getelementptr inbounds %"class.__gnu_cxx::__normal_iterator", ptr %3, i32 0, i32 0
  %13 = load ptr, ptr %12, align 8
  ret ptr %13
}

; Function Attrs: mustprogress uwtable
define linkonce_odr noundef i64 @_ZNK3gmx12PaddedVectorINS_11BasicVectorIfEENS_9AllocatorIS2_NS_20HostAllocationPolicyEEEE4sizeEv(ptr noundef nonnull align 8 dereferenceable(40) %0) #0 comdat align 2 {
  %2 = alloca ptr, align 8
  %3 = alloca %"class.__gnu_cxx::__normal_iterator.225", align 8
  %4 = alloca %"class.__gnu_cxx::__normal_iterator.225", align 8
  store ptr %0, ptr %2, align 8
  %5 = load ptr, ptr %2, align 8
  %6 = call ptr @_ZNK3gmx12PaddedVectorINS_11BasicVectorIfEENS_9AllocatorIS2_NS_20HostAllocationPolicyEEEE3endEv(ptr noundef nonnull align 8 dereferenceable(40) %5)
  %7 = getelementptr inbounds %"class.__gnu_cxx::__normal_iterator.225", ptr %3, i32 0, i32 0
  store ptr %6, ptr %7, align 8
  %8 = call ptr @_ZNK3gmx12PaddedVectorINS_11BasicVectorIfEENS_9AllocatorIS2_NS_20HostAllocationPolicyEEEE5beginEv(ptr noundef nonnull align 8 dereferenceable(40) %5)
  %9 = getelementptr inbounds %"class.__gnu_cxx::__normal_iterator.225", ptr %4, i32 0, i32 0
  store ptr %8, ptr %9, align 8
  %10 = call noundef i64 @_ZN9__gnu_cxxmiIPKN3gmx11BasicVectorIfEESt6vectorIS3_NS1_9AllocatorIS3_NS1_20HostAllocationPolicyEEEEEENS_17__normal_iteratorIT_T0_E15difference_typeERKSE_SH_(ptr noundef nonnull align 8 dereferenceable(8) %3, ptr noundef nonnull align 8 dereferenceable(8) %4) #14
  ret i64 %10
}

; Function Attrs: mustprogress nounwind uwtable
define linkonce_odr ptr @_ZN3gmx12PaddedVectorINS_11BasicVectorIfEENS_9AllocatorIS2_NS_20HostAllocationPolicyEEEE5beginEv(ptr noundef nonnull align 8 dereferenceable(40) %0) #1 comdat align 2 {
  %2 = alloca %"class.__gnu_cxx::__normal_iterator", align 8
  %3 = alloca ptr, align 8
  store ptr %0, ptr %3, align 8
  %4 = load ptr, ptr %3, align 8
  %5 = getelementptr inbounds %"class.gmx::PaddedVector", ptr %4, i32 0, i32 0
  %6 = call ptr @_ZNSt6vectorIN3gmx11BasicVectorIfEENS0_9AllocatorIS2_NS0_20HostAllocationPolicyEEEE5beginEv(ptr noundef nonnull align 8 dereferenceable(32) %5) #14
  %7 = getelementptr inbounds %"class.__gnu_cxx::__normal_iterator", ptr %2, i32 0, i32 0
  store ptr %6, ptr %7, align 8
  %8 = getelementptr inbounds %"class.__gnu_cxx::__normal_iterator", ptr %2, i32 0, i32 0
  %9 = load ptr, ptr %8, align 8
  ret ptr %9
}

; Function Attrs: mustprogress uwtable
define linkonce_odr noundef nonnull align 8 dereferenceable(40) ptr @_ZN3gmx12PaddedVectorINS_11BasicVectorIfEENS_9AllocatorIS2_NS_20HostAllocationPolicyEEEEaSERKS6_(ptr noundef nonnull align 8 dereferenceable(40) %0, ptr noundef nonnull align 8 dereferenceable(40) %1) #0 comdat align 2 {
  %3 = alloca ptr, align 8
  %4 = alloca ptr, align 8
  %5 = alloca %"class.__gnu_cxx::__normal_iterator", align 8
  %6 = alloca %"class.__gnu_cxx::__normal_iterator", align 8
  store ptr %0, ptr %3, align 8
  store ptr %1, ptr %4, align 8
  %7 = load ptr, ptr %3, align 8
  %8 = load ptr, ptr %4, align 8
  %9 = icmp ne ptr %8, %7
  br i1 %9, label %10, label %22

10:                                               ; preds = %2
  %11 = load ptr, ptr %4, align 8
  %12 = getelementptr inbounds %"class.gmx::PaddedVector", ptr %11, i32 0, i32 0
  %13 = getelementptr inbounds %"class.gmx::PaddedVector", ptr %7, i32 0, i32 0
  %14 = call noundef nonnull align 8 dereferenceable(32) ptr @_ZNSt6vectorIN3gmx11BasicVectorIfEENS0_9AllocatorIS2_NS0_20HostAllocationPolicyEEEEaSERKS6_(ptr noundef nonnull align 8 dereferenceable(32) %13, ptr noundef nonnull align 8 dereferenceable(32) %12)
  %15 = call ptr @_ZN3gmx12PaddedVectorINS_11BasicVectorIfEENS_9AllocatorIS2_NS_20HostAllocationPolicyEEEE5beginEv(ptr noundef nonnull align 8 dereferenceable(40) %7)
  %16 = getelementptr inbounds %"class.__gnu_cxx::__normal_iterator", ptr %6, i32 0, i32 0
  store ptr %15, ptr %16, align 8
  %17 = load ptr, ptr %4, align 8
  %18 = call noundef i64 @_ZNK3gmx12PaddedVectorINS_11BasicVectorIfEENS_9AllocatorIS2_NS_20HostAllocationPolicyEEEE4sizeEv(ptr noundef nonnull align 8 dereferenceable(40) %17)
  %19 = call ptr @_ZNK9__gnu_cxx17__normal_iteratorIPN3gmx11BasicVectorIfEESt6vectorIS3_NS1_9AllocatorIS3_NS1_20HostAllocationPolicyEEEEEplEl(ptr noundef nonnull align 8 dereferenceable(8) %6, i64 noundef %18) #14
  %20 = getelementptr inbounds %"class.__gnu_cxx::__normal_iterator", ptr %5, i32 0, i32 0
  store ptr %19, ptr %20, align 8
  %21 = getelementptr inbounds %"class.gmx::PaddedVector", ptr %7, i32 0, i32 1
  call void @llvm.memcpy.p0.p0.i64(ptr align 8 %21, ptr align 8 %5, i64 8, i1 false)
  br label %22

22:                                               ; preds = %10, %2
  ret ptr %7
}

; Function Attrs: mustprogress uwtable
define void @_ZN3gmx19StatePropagatorData15resetVelocitiesEv(ptr noundef nonnull align 8 dereferenceable(632) %0) #0 align 2 {
  %2 = alloca ptr, align 8
  store ptr %0, ptr %2, align 8
  %3 = load ptr, ptr %2, align 8
  %4 = getelementptr inbounds %"class.gmx::StatePropagatorData", ptr %3, i32 0, i32 18
  %5 = getelementptr inbounds %"class.gmx::StatePropagatorData", ptr %3, i32 0, i32 4
  %6 = call noundef nonnull align 8 dereferenceable(40) ptr @_ZN3gmx12PaddedVectorINS_11BasicVectorIfEENS_9AllocatorIS2_NS_20HostAllocationPolicyEEEEaSERKS6_(ptr noundef nonnull align 8 dereferenceable(40) %5, ptr noundef nonnull align 8 dereferenceable(40) %4)
  ret void
}

; Function Attrs: mustprogress uwtable
define internal void @"_ZZN3gmx19StatePropagatorData7Element12scheduleTaskEldRKSt8functionIFvS2_IFvvEEEEENK3$_0clEv"(ptr noundef nonnull align 8 dereferenceable(8) %0) #0 align 2 {
  %2 = alloca ptr, align 8
  store ptr %0, ptr %2, align 8
  %3 = load ptr, ptr %2, align 8
  %4 = getelementptr inbounds %class.anon, ptr %3, i32 0, i32 0
  %5 = load ptr, ptr %4, align 8
  %6 = getelementptr inbounds %"class.gmx::StatePropagatorData::Element", ptr %5, i32 0, i32 5
  %7 = load ptr, ptr %6, align 8
  call void @_ZN3gmx19StatePropagatorData15resetVelocitiesEv(ptr noundef nonnull align 8 dereferenceable(632) %7)
  ret void
}

; Function Attrs: mustprogress nounwind uwtable
define linkonce_odr noundef ptr @_ZNKSt9_Any_data9_M_accessEv(ptr noundef nonnull align 8 dereferenceable(16) %0) #1 comdat align 2 {
  %2 = alloca ptr, align 8
  store ptr %0, ptr %2, align 8
  %3 = load ptr, ptr %2, align 8
  %4 = getelementptr inbounds [16 x i8], ptr %3, i64 0, i64 0
  ret ptr %4
}

; Function Attrs: mustprogress uwtable
define internal void @"_ZSt13__invoke_implIvRZN3gmx19StatePropagatorData7Element12scheduleTaskEldRKSt8functionIFvS3_IFvvEEEEE3$_0JEET_St14__invoke_otherOT0_DpOT1_"(ptr noundef nonnull align 8 dereferenceable(8) %0) #0 {
  %2 = alloca ptr, align 8
  store ptr %0, ptr %2, align 8
  %3 = load ptr, ptr %2, align 8
  call void @"_ZZN3gmx19StatePropagatorData7Element12scheduleTaskEldRKSt8functionIFvS2_IFvvEEEEENK3$_0clEv"(ptr noundef nonnull align 8 dereferenceable(8) %3)
  ret void
}

; Function Attrs: mustprogress nounwind uwtable
define internal noundef nonnull align 8 dereferenceable(8) ptr @"_ZNKSt9_Any_data9_M_accessIZN3gmx19StatePropagatorData7Element12scheduleTaskEldRKSt8functionIFvS4_IFvvEEEEE3$_0EERKT_v"(ptr noundef nonnull align 8 dereferenceable(16) %0) #1 align 2 {
  %2 = alloca ptr, align 8
  store ptr %0, ptr %2, align 8
  %3 = load ptr, ptr %2, align 8
  %4 = call noundef ptr @_ZNKSt9_Any_data9_M_accessEv(ptr noundef nonnull align 8 dereferenceable(16) %3) #14
  ret ptr %4
}

; Function Attrs: mustprogress uwtable
define internal void @"_ZSt10__invoke_rIvRZN3gmx19StatePropagatorData7Element12scheduleTaskEldRKSt8functionIFvS3_IFvvEEEEE3$_0JEENSt9enable_ifIX16is_invocable_r_vIT_T0_DpT1_EESD_E4typeEOSE_DpOSF_"(ptr noundef nonnull align 8 dereferenceable(8) %0) #0 {
  %2 = alloca ptr, align 8
  store ptr %0, ptr %2, align 8
  %3 = load ptr, ptr %2, align 8
  call void @"_ZSt13__invoke_implIvRZN3gmx19StatePropagatorData7Element12scheduleTaskEldRKSt8functionIFvS3_IFvvEEEEE3$_0JEET_St14__invoke_otherOT0_DpOT1_"(ptr noundef nonnull align 8 dereferenceable(8) %3)
  ret void
}

; Function Attrs: mustprogress nounwind uwtable
define internal noundef ptr @"_ZNSt14_Function_base13_Base_managerIZN3gmx19StatePropagatorData7Element12scheduleTaskEldRKSt8functionIFvS4_IFvvEEEEE3$_0E14_M_get_pointerERKSt9_Any_data"(ptr noundef nonnull align 8 dereferenceable(16) %0) #1 align 2 {
  %2 = alloca ptr, align 8
  %3 = alloca ptr, align 8
  store ptr %0, ptr %2, align 8
  %4 = load ptr, ptr %2, align 8
  %5 = call noundef nonnull align 8 dereferenceable(8) ptr @"_ZNKSt9_Any_data9_M_accessIZN3gmx19StatePropagatorData7Element12scheduleTaskEldRKSt8functionIFvS4_IFvvEEEEE3$_0EERKT_v"(ptr noundef nonnull align 8 dereferenceable(16) %4) #14
  store ptr %5, ptr %3, align 8
  %6 = load ptr, ptr %3, align 8
  ret ptr %6
}

; Function Attrs: mustprogress uwtable
define internal void @"_ZNSt17_Function_handlerIFvvEZN3gmx19StatePropagatorData7Element12scheduleTaskEldRKSt8functionIFvS4_IS0_EEEE3$_0E9_M_invokeERKSt9_Any_data"(ptr noundef nonnull align 8 dereferenceable(16) %0) #0 align 2 {
  %2 = alloca ptr, align 8
  store ptr %0, ptr %2, align 8
  %3 = load ptr, ptr %2, align 8
  %4 = call noundef ptr @"_ZNSt14_Function_base13_Base_managerIZN3gmx19StatePropagatorData7Element12scheduleTaskEldRKSt8functionIFvS4_IFvvEEEEE3$_0E14_M_get_pointerERKSt9_Any_data"(ptr noundef nonnull align 8 dereferenceable(16) %3) #14
  call void @"_ZSt10__invoke_rIvRZN3gmx19StatePropagatorData7Element12scheduleTaskEldRKSt8functionIFvS3_IFvvEEEEE3$_0JEENSt9enable_ifIX16is_invocable_r_vIT_T0_DpT1_EESD_E4typeEOSE_DpOSF_"(ptr noundef nonnull align 8 dereferenceable(8) %4)
  ret void
}