; Function Attrs: mustprogress uwtable
define internal void @"_ZNSt17_Function_handlerIFvvEZN3gmx19StatePropagatorData7Element12scheduleTaskEldRKSt8functionIFvS4_IS0_EEEE3$_0E9_M_invokeERKSt9_Any_data"(ptr nocapture noundef nonnull readonly align 8 dereferenceable(16) %0) #0 align 2 {
  %.val = load ptr, ptr %0, align 8
  %2 = getelementptr i8, ptr %.val, i64 40
  %.val.val = load ptr, ptr %2, align 8
  %3 = getelementptr inbounds i8, ptr %.val.val, i64 560
  %4 = getelementptr inbounds i8, ptr %.val.val, i64 88
  %5 = tail call noundef nonnull align 8 dereferenceable(32) ptr @_ZNSt6vectorIN3gmx11BasicVectorIfEENS0_9AllocatorIS2_NS0_20HostAllocationPolicyEEEEaSERKS6_(ptr noundef nonnull align 8 dereferenceable(32) %4, ptr noundef nonnull align 8 dereferenceable(32) %3)
  %6 = getelementptr inbounds i8, ptr %.val.val, i64 96
  %7 = load ptr, ptr %6, align 8
  %8 = getelementptr inbounds i8, ptr %.val.val, i64 592
  %9 = load ptr, ptr %8, align 8
  %10 = getelementptr inbounds i8, ptr %.val.val, i64 568
  %11 = load ptr, ptr %10, align 8
  %12 = ptrtoint ptr %9 to i64
  %13 = ptrtoint ptr %11 to i64
  %14 = sub i64 %12, %13
  %15 = getelementptr inbounds i8, ptr %7, i64 %14
  %16 = getelementptr inbounds i8, ptr %.val.val, i64 120
  store ptr %15, ptr %16, align 8
  ret void
}